; Function Attrs: nounwind uwtable
define void @av_log_once(ptr noundef %0, i32 noundef %1, i32 noundef %2, ptr noundef captures(none) %3, ptr noundef %4, ...) local_unnamed_addr #1 {
  %6 = alloca [1 x %struct.__va_list_tag], align 16
  call void @llvm.lifetime.start.p0(i64 24, ptr nonnull %6) #14
  call void @llvm.va_start.p0(ptr nonnull %6)
  %7 = load i32, ptr %3, align 4, !tbaa !17
  %.not = icmp eq i32 %7, 0
  %8 = select i1 %.not, i32 %1, i32 %2
  %.not.i = icmp eq ptr %0, null
  br i1 %.not.i, label %.thread.i, label %10

.thread.i:                                        ; preds = %5
  %9 = load ptr, ptr @av_log_callback, align 8, !tbaa !34
  br label %27

10:                                               ; preds = %5
  %11 = load ptr, ptr %0, align 8, !tbaa !4
  %12 = load ptr, ptr @av_log_callback, align 8, !tbaa !34
  %.not20.i = icmp eq ptr %11, null
  br i1 %.not20.i, label %27, label %13

13:                                               ; preds = %10
  %14 = getelementptr inbounds nuw i8, ptr %11, i64 24
  %15 = load i32, ptr %14, align 8, !tbaa !23
  %16 = icmp sgt i32 %15, 3280641
  br i1 %16, label %17, label %27

17:                                               ; preds = %13
  %18 = getelementptr inbounds nuw i8, ptr %11, i64 28
  %19 = load i32, ptr %18, align 4, !tbaa !35
  %20 = icmp ne i32 %19, 0
  %21 = icmp sgt i32 %8, 7
  %or.cond.i = and i1 %21, %20
  br i1 %or.cond.i, label %22, label %27

22:                                               ; preds = %17
  %23 = sext i32 %19 to i64
  %24 = getelementptr inbounds i8, ptr %0, i64 %23
  %25 = load i32, ptr %24, align 4, !tbaa !17
  %26 = add nsw i32 %25, %8
  br label %27

27:                                               ; preds = %22, %17, %13, %10, %.thread.i
  %28 = phi ptr [ %12, %22 ], [ %12, %17 ], [ %12, %13 ], [ %12, %10 ], [ %9, %.thread.i ]
  %.0.i = phi i32 [ %26, %22 ], [ %8, %17 ], [ %8, %13 ], [ %8, %10 ], [ %8, %.thread.i ]
  %.not21.i = icmp eq ptr %28, null
  br i1 %.not21.i, label %av_vlog.exit, label %29

29:                                               ; preds = %27
  call void %28(ptr noundef %0, i32 noundef %.0.i, ptr noundef %4, ptr noundef nonnull %6) #14
  br label %av_vlog.exit

av_vlog.exit:                                     ; preds = %27, %29
  call void @llvm.va_end.p0(ptr nonnull %6)
  store i32 1, ptr %3, align 4, !tbaa !17
  call void @llvm.lifetime.end.p0(i64 24, ptr nonnull %6) #14
  ret void
}